target datalayout = "e-m:e-p270:32:32-p271:32:32-p272:64:64-i64:64-i128:128-f80:128-n8:16:32:64-S128"
target triple = "x86_64-pc-linux-gnu"

; Function Attrs: nounwind uwtable
define dso_local void @makeCylinder(i32 noundef %0, i32 noundef %1, ptr noundef %2) #0 {
  %4 = alloca i32, align 4
  %5 = alloca i32, align 4
  %6 = alloca ptr, align 8
  %7 = alloca i32, align 4
  %8 = alloca i32, align 4
  %9 = alloca i32, align 4
  %10 = alloca i32, align 4
  %11 = alloca i32, align 4
  %12 = alloca i32, align 4
  store i32 %0, ptr %4, align 4, !tbaa !4
  store i32 %1, ptr %5, align 4, !tbaa !4
  store ptr %2, ptr %6, align 8, !tbaa !8
  call void @llvm.lifetime.start.p0(i64 4, ptr %7) #11
  store i32 1, ptr %7, align 4, !tbaa !4
  call void @llvm.lifetime.start.p0(i64 4, ptr %8) #11
  store i32 0, ptr %8, align 4, !tbaa !4
  br label %13

13:                                               ; preds = %46, %3
  %14 = load i32, ptr %7, align 4, !tbaa !4
  %15 = load i32, ptr %4, align 4, !tbaa !4
  %16 = icmp ule i32 %14, %15
  br i1 %16, label %18, label %17

17:                                               ; preds = %13
  store i32 2, ptr %9, align 4
  call void @llvm.lifetime.end.p0(i64 4, ptr %8) #11
  call void @llvm.lifetime.end.p0(i64 4, ptr %7) #11
  br label %49

18:                                               ; preds = %13
  call void @llvm.lifetime.start.p0(i64 4, ptr %10) #11
  store i32 1, ptr %10, align 4, !tbaa !4
  br label %19

19:                                               ; preds = %33, %18
  %20 = load i32, ptr %10, align 4, !tbaa !4
  %21 = load i32, ptr %5, align 4, !tbaa !4
  %22 = icmp ult i32 %20, %21
  br i1 %22, label %24, label %23

23:                                               ; preds = %19
  store i32 5, ptr %9, align 4
  call void @llvm.lifetime.end.p0(i64 4, ptr %10) #11
  br label %36

24:                                               ; preds = %19
  %25 = load ptr, ptr %6, align 8, !tbaa !8
  %26 = load i32, ptr %8, align 4, !tbaa !4
  %27 = load i32, ptr %10, align 4, !tbaa !4
  %28 = add i32 %26, %27
  %29 = load i32, ptr %8, align 4, !tbaa !4
  %30 = load i32, ptr %10, align 4, !tbaa !4
  %31 = add i32 %29, %30
  %32 = add i32 %31, 1
  call void %25(i32 noundef %28, i32 noundef %32)
  br label %33

33:                                               ; preds = %24
  %34 = load i32, ptr %10, align 4, !tbaa !4
  %35 = add i32 %34, 1
  store i32 %35, ptr %10, align 4, !tbaa !4
  br label %19, !llvm.loop !27

36:                                               ; preds = %23
  %37 = load ptr, ptr %6, align 8, !tbaa !8
  %38 = load i32, ptr %8, align 4, !tbaa !4
  %39 = add i32 %38, 1
  %40 = load i32, ptr %8, align 4, !tbaa !4
  %41 = load i32, ptr %5, align 4, !tbaa !4
  %42 = add i32 %40, %41
  call void %37(i32 noundef %39, i32 noundef %42)
  %43 = load i32, ptr %5, align 4, !tbaa !4
  %44 = load i32, ptr %8, align 4, !tbaa !4
  %45 = add i32 %44, %43
  store i32 %45, ptr %8, align 4, !tbaa !4
  br label %46

46:                                               ; preds = %36
  %47 = load i32, ptr %7, align 4, !tbaa !4
  %48 = add i32 %47, 1
  store i32 %48, ptr %7, align 4, !tbaa !4
  br label %13, !llvm.loop !28

49:                                               ; preds = %17
  call void @llvm.lifetime.start.p0(i64 4, ptr %11) #11
  store i32 1, ptr %11, align 4, !tbaa !4
  br label %50

50:                                               ; preds = %78, %49
  %51 = load i32, ptr %11, align 4, !tbaa !4
  %52 = load i32, ptr %5, align 4, !tbaa !4
  %53 = icmp ule i32 %51, %52
  br i1 %53, label %55, label %54

54:                                               ; preds = %50
  store i32 8, ptr %9, align 4
  call void @llvm.lifetime.end.p0(i64 4, ptr %11) #11
  br label %81

55:                                               ; preds = %50
  call void @llvm.lifetime.start.p0(i64 4, ptr %12) #11
  store i32 1, ptr %12, align 4, !tbaa !4
  br label %56

56:                                               ; preds = %74, %55
  %57 = load i32, ptr %12, align 4, !tbaa !4
  %58 = load i32, ptr %4, align 4, !tbaa !4
  %59 = icmp ult i32 %57, %58
  br i1 %59, label %61, label %60

60:                                               ; preds = %56
  store i32 11, ptr %9, align 4
  call void @llvm.lifetime.end.p0(i64 4, ptr %12) #11
  br label %77

61:                                               ; preds = %56
  %62 = load ptr, ptr %6, align 8, !tbaa !8
  %63 = load i32, ptr %5, align 4, !tbaa !4
  %64 = load i32, ptr %12, align 4, !tbaa !4
  %65 = sub i32 %64, 1
  %66 = mul i32 %63, %65
  %67 = load i32, ptr %11, align 4, !tbaa !4
  %68 = add i32 %66, %67
  %69 = load i32, ptr %5, align 4, !tbaa !4
  %70 = load i32, ptr %12, align 4, !tbaa !4
  %71 = mul i32 %69, %70
  %72 = load i32, ptr %11, align 4, !tbaa !4
  %73 = add i32 %71, %72
  call void %62(i32 noundef %68, i32 noundef %73)
  br label %74

74:                                               ; preds = %61
  %75 = load i32, ptr %12, align 4, !tbaa !4
  %76 = add i32 %75, 1
  store i32 %76, ptr %12, align 4, !tbaa !4
  br label %56, !llvm.loop !29

77:                                               ; preds = %60
  br label %78

78:                                               ; preds = %77
  %79 = load i32, ptr %11, align 4, !tbaa !4
  %80 = add i32 %79, 1
  store i32 %80, ptr %11, align 4, !tbaa !4
  br label %50, !llvm.loop !30

81:                                               ; preds = %54
  ret void
}