; Function Attrs: nounwind uwtable
define dso_local void @makeCylinder(i32 noundef %0, i32 noundef %1, ptr noundef readonly captures(none) %2) local_unnamed_addr #0 {
  %.not39 = icmp eq i32 %0, 0
  br i1 %.not39, label %.preheader36, label %.preheader37.lr.ph

.preheader37.lr.ph:                               ; preds = %3
  %4 = icmp ugt i32 %1, 1
  br i1 %4, label %.preheader37.us, label %.preheader37

.preheader37.us:                                  ; preds = %.preheader37.lr.ph, %._crit_edge.us
  %.03141.us = phi i32 [ %8, %._crit_edge.us ], [ 0, %.preheader37.lr.ph ]
  %.03240.us = phi i32 [ %9, %._crit_edge.us ], [ 1, %.preheader37.lr.ph ]
  %invariant.op.us = add i32 %.03141.us, 1
  br label %5

5:                                                ; preds = %.preheader37.us, %5
  %.03038.us = phi i32 [ 1, %.preheader37.us ], [ %7, %5 ]
  %6 = add i32 %.03038.us, %.03141.us
  %.reass.us = add i32 %.03038.us, %invariant.op.us
  tail call void %2(i32 noundef %6, i32 noundef %.reass.us) #15
  %7 = add nuw i32 %.03038.us, 1
  %exitcond.not = icmp eq i32 %7, %1
  br i1 %exitcond.not, label %._crit_edge.us, label %5, !llvm.loop !24

._crit_edge.us:                                   ; preds = %5
  %8 = add i32 %.03141.us, %1
  tail call void %2(i32 noundef %invariant.op.us, i32 noundef %8) #15
  %9 = add i32 %.03240.us, 1
  %.not.us = icmp ugt i32 %9, %0
  br i1 %.not.us, label %.preheader.lr.ph, label %.preheader37.us, !llvm.loop !25

.preheader37:                                     ; preds = %.preheader37.lr.ph, %.preheader37
  %.03141 = phi i32 [ %11, %.preheader37 ], [ 0, %.preheader37.lr.ph ]
  %.03240 = phi i32 [ %12, %.preheader37 ], [ 1, %.preheader37.lr.ph ]
  %10 = add i32 %.03141, 1
  %11 = add i32 %.03141, %1
  tail call void %2(i32 noundef %10, i32 noundef %11) #15
  %12 = add i32 %.03240, 1
  %.not = icmp ugt i32 %12, %0
  br i1 %.not, label %.preheader36, label %.preheader37, !llvm.loop !25

.preheader36:                                     ; preds = %.preheader37, %3
  %.not3543 = icmp ne i32 %1, 0
  %13 = icmp ugt i32 %0, 1
  %or.cond = and i1 %.not3543, %13
  br i1 %or.cond, label %.preheader.us.preheader, label %._crit_edge45

.preheader.lr.ph:                                 ; preds = %._crit_edge.us
  %.old.not = icmp eq i32 %0, 1
  br i1 %.old.not, label %._crit_edge45, label %.preheader.us.preheader

.preheader.us.preheader:                          ; preds = %.preheader36, %.preheader.lr.ph
  br label %.preheader.us

.preheader.us:                                    ; preds = %.preheader.us.preheader, %._crit_edge.us46
  %.02944.us = phi i32 [ %21, %._crit_edge.us46 ], [ 1, %.preheader.us.preheader ]
  br label %14

14:                                               ; preds = %.preheader.us, %14
  %.042.us = phi i32 [ 1, %.preheader.us ], [ %20, %14 ]
  %15 = add i32 %.042.us, -1
  %16 = mul i32 %15, %1
  %17 = add i32 %16, %.02944.us
  %18 = mul i32 %.042.us, %1
  %19 = add i32 %18, %.02944.us
  tail call void %2(i32 noundef %17, i32 noundef %19) #15
  %20 = add nuw i32 %.042.us, 1
  %exitcond49.not = icmp eq i32 %20, %0
  br i1 %exitcond49.not, label %._crit_edge.us46, label %14, !llvm.loop !26

._crit_edge.us46:                                 ; preds = %14
  %21 = add i32 %.02944.us, 1
  %.not35.us = icmp ugt i32 %21, %1
  br i1 %.not35.us, label %._crit_edge45, label %.preheader.us, !llvm.loop !27

._crit_edge45:                                    ; preds = %._crit_edge.us46, %.preheader.lr.ph, %.preheader36
  ret void
}